target datalayout = "e-m:e-p270:32:32-p271:32:32-p272:64:64-i64:64-i128:128-f80:128-n8:16:32:64-S128"
target triple = "x86_64-pc-linux-gnu"

%struct._lv_global_t = type { i8, i8, %struct.lv_ll_t, ptr, ptr, %struct.lv_ll_t, i8, i32, i32, ptr, %struct.lv_ll_t, ptr, %struct.lv_ll_t, ptr, ptr, i32, ptr, i8, i32, i32, ptr, i32, %struct.lv_timer_state_t, %struct.lv_anim_state_t, %struct.lv_tick_state_t, %struct._lv_draw_buf_handlers_t, %struct._lv_draw_buf_handlers_t, %struct._lv_draw_buf_handlers_t, %struct.lv_ll_t, ptr, ptr, %struct.lv_draw_global_info_t, [4 x %struct.lv_draw_sw_mask_radius_circle_dsc_t], ptr, ptr, ptr, %struct.lv_tlsf_state_t, %struct.lv_ll_t, ptr, ptr, %struct.lv_style_t, i64, ptr, i32, ptr }
%struct.lv_timer_state_t = type { %struct.lv_ll_t, i8, i8, i8, i8, i32, i8, i32, i32, i32, i32, ptr, ptr }
%struct.lv_anim_state_t = type { i8, i8, ptr, %struct.lv_ll_t }
%struct.lv_tick_state_t = type { i32, i8, ptr, ptr }
%struct._lv_draw_buf_handlers_t = type { ptr, ptr, ptr, ptr, ptr, ptr }
%struct.lv_draw_global_info_t = type { ptr, i32, i32, i32, i32, i8 }
%struct.lv_draw_sw_mask_radius_circle_dsc_t = type { ptr, ptr, ptr, ptr, i32, i32, i32 }
%struct.lv_tlsf_state_t = type { ptr, i64, i64, %struct.lv_ll_t }
%struct.lv_ll_t = type { i32, ptr, ptr }
%struct.lv_style_t = type { ptr, i32, i8 }
%struct.lv_color_t = type { i8, i8, i8 }
%struct._my_theme_t = type { %struct._lv_theme_t, i32, i32, %struct.lv_color_t, %struct.lv_color_t, %struct.lv_color_t, %struct.lv_color_t, i8, %struct.my_theme_styles_t, %struct._lv_color_filter_dsc_t, %struct._lv_color_filter_dsc_t, %struct.lv_style_transition_dsc_t, %struct.lv_style_transition_dsc_t }
%struct._lv_theme_t = type { ptr, ptr, ptr, ptr, %struct.lv_color_t, %struct.lv_color_t, ptr, ptr, ptr, i32 }
%struct.my_theme_styles_t = type { %struct.lv_style_t, %struct.lv_style_t, %struct.lv_style_t, %struct.lv_style_t, %struct.lv_style_t, %struct.lv_style_t, %struct.lv_style_t, %struct.lv_style_t, %struct.lv_style_t, %struct.lv_style_t, %struct.lv_style_t, %struct.lv_style_t, %struct.lv_style_t, %struct.lv_style_t, %struct.lv_style_t, %struct.lv_style_t, %struct.lv_style_t, %struct.lv_style_t, %struct.lv_style_t, %struct.lv_style_t, %struct.lv_style_t, %struct.lv_style_t, %struct.lv_style_t, %struct.lv_style_t, %struct.lv_style_t, %struct.lv_style_t, %struct.lv_style_t, %struct.lv_style_t, %struct.lv_style_t, %struct.lv_style_t, %struct.lv_style_t, %struct.lv_style_t, %struct.lv_style_t, %struct.lv_style_t, %struct.lv_style_t, %struct.lv_style_t, %struct.lv_style_t, %struct.lv_style_t, %struct.lv_style_t, %struct.lv_style_t, %struct.lv_style_t, %struct.lv_style_t, %struct.lv_style_t, %struct.lv_style_t, %struct.lv_style_t, %struct.lv_style_t, %struct.lv_style_t, %struct.lv_style_t, %struct.lv_style_t, %struct.lv_style_t, %struct.lv_style_t, %struct.lv_style_t, %struct.lv_style_t, %struct.lv_style_t, %struct.lv_style_t, %struct.lv_style_t, %struct.lv_style_t, %struct.lv_style_t, %struct.lv_style_t, %struct.lv_style_t, %struct.lv_style_t, %struct.lv_style_t, %struct.lv_style_t, %struct.lv_style_t, %struct.lv_style_t, %struct.lv_style_t, %struct.lv_style_t }
%struct._lv_color_filter_dsc_t = type { ptr, ptr }
%struct.lv_style_transition_dsc_t = type { ptr, ptr, ptr, i32, i32 }

@lv_global = external global %struct._lv_global_t, align 8

; Function Attrs: nounwind uwtable
define internal i24 @grey_filter_cb(ptr noundef %0, i24 %1, i8 noundef zeroext %2) #0 {
  %4 = alloca %struct.lv_color_t, align 1
  %5 = alloca %struct.lv_color_t, align 1
  %6 = alloca ptr, align 8
  %7 = alloca i8, align 1
  %8 = alloca %struct.lv_color_t, align 1
  %9 = alloca i24, align 4
  %10 = alloca i24, align 4
  %11 = alloca %struct.lv_color_t, align 1
  %12 = alloca i24, align 4
  %13 = alloca i24, align 4
  %14 = alloca i24, align 4
  store i24 %1, ptr %5, align 1
  store ptr %0, ptr %6, align 8, !tbaa !3
  store i8 %2, ptr %7, align 1, !tbaa !27
  %15 = load ptr, ptr getelementptr inbounds nuw (%struct._lv_global_t, ptr @lv_global, i32 0, i32 34), align 8, !tbaa !3
  %16 = getelementptr inbounds nuw %struct._my_theme_t, ptr %15, i32 0, i32 0
  %17 = getelementptr inbounds nuw %struct._lv_theme_t, ptr %16, i32 0, i32 9
  %18 = load i32, ptr %17, align 8, !tbaa !23
  %19 = and i32 %18, 1
  %20 = icmp ne i32 %19, 0
  br i1 %20, label %21, label %27

21:                                               ; preds = %3
  %22 = call i24 @lv_palette_darken(i32 noundef 18, i8 noundef zeroext 2)
  store i24 %22, ptr %8, align 1
  %23 = load i8, ptr %7, align 1, !tbaa !27
  call void @llvm.memcpy.p0.p0.i64(ptr align 4 %9, ptr align 1 %8, i64 3, i1 false)
  %24 = load i24, ptr %9, align 4
  call void @llvm.memcpy.p0.p0.i64(ptr align 4 %10, ptr align 1 %5, i64 3, i1 false)
  %25 = load i24, ptr %10, align 4
  %26 = call i24 @lv_color_mix(i24 %24, i24 %25, i8 noundef zeroext %23)
  store i24 %26, ptr %4, align 1
  br label %33

27:                                               ; preds = %3
  %28 = call i24 @lv_palette_lighten(i32 noundef 18, i8 noundef zeroext 2)
  store i24 %28, ptr %11, align 1
  %29 = load i8, ptr %7, align 1, !tbaa !27
  call void @llvm.memcpy.p0.p0.i64(ptr align 4 %12, ptr align 1 %11, i64 3, i1 false)
  %30 = load i24, ptr %12, align 4
  call void @llvm.memcpy.p0.p0.i64(ptr align 4 %13, ptr align 1 %5, i64 3, i1 false)
  %31 = load i24, ptr %13, align 4
  %32 = call i24 @lv_color_mix(i24 %30, i24 %31, i8 noundef zeroext %29)
  store i24 %32, ptr %4, align 1
  br label %33

33:                                               ; preds = %27, %21
  call void @llvm.memcpy.p0.p0.i64(ptr align 4 %14, ptr align 1 %4, i64 3, i1 false)
  %34 = load i24, ptr %14, align 4
  ret i24 %34
}