; Function Attrs: nounwind uwtable
define internal i24 @grey_filter_cb(ptr nocapture readnone %0, i24 %1, i8 noundef zeroext %2) #0 {
  %4 = load ptr, ptr getelementptr inbounds nuw (i8, ptr @lv_global, i64 768), align 8, !tbaa !3
  %5 = getelementptr inbounds nuw i8, ptr %4, i64 64
  %6 = load i32, ptr %5, align 8, !tbaa !21
  %7 = and i32 %6, 1
  %.not = icmp eq i32 %7, 0
  br i1 %.not, label %10, label %8

8:                                                ; preds = %3
  %9 = tail call i24 @lv_palette_darken(i32 noundef 18, i8 noundef zeroext 2) #3
  br label %12

10:                                               ; preds = %3
  %11 = tail call i24 @lv_palette_lighten(i32 noundef 18, i8 noundef zeroext 2) #3
  br label %12

12:                                               ; preds = %10, %8
  %.sink = phi i24 [ %11, %10 ], [ %9, %8 ]
  %13 = tail call i24 @lv_color_mix(i24 %.sink, i24 %1, i8 noundef zeroext %2) #3
  ret i24 %13
}